target datalayout = "e-m:e-p270:32:32-p271:32:32-p272:64:64-i64:64-i128:128-f80:128-n8:16:32:64-S128"
target triple = "x86_64-pc-linux-gnu"

; Function Attrs: mustprogress nounwind uwtable
define linkonce_odr hidden noundef zeroext i1 @_ZNK4llvm3opt7ArgList6hasArgIJN5clang6driver7options2IDEEEEbDpT_(ptr noundef nonnull align 8 dereferenceable(176) %0, i32 noundef %1) #0 comdat align 2 {
  %3 = alloca ptr, align 8
  %4 = alloca i32, align 4
  store ptr %0, ptr %3, align 8
  store i32 %1, ptr %4, align 4
  %5 = load ptr, ptr %3, align 8
  %6 = load i32, ptr %4, align 4
  %7 = call noundef ptr @_ZNK4llvm3opt7ArgList10getLastArgIJN5clang6driver7options2IDEEEEPNS0_3ArgEDpT_(ptr noundef nonnull align 8 dereferenceable(176) %5, i32 noundef %6)
  %8 = icmp ne ptr %7, null
  ret i1 %8
}

; Function Attrs: mustprogress nounwind uwtable
define dso_local noundef zeroext i1 @_ZN5clang6driver9ToolChain14needsProfileRTERKN4llvm3opt7ArgListE(ptr noundef nonnull align 8 dereferenceable(176) %0) #0 align 2 {
  %2 = alloca i1, align 1
  %3 = alloca ptr, align 8
  store ptr %0, ptr %3, align 8
  %4 = load ptr, ptr %3, align 8
  %5 = call noundef zeroext i1 @_ZNK4llvm3opt7ArgList6hasArgIJN5clang6driver7options2IDEEEEbDpT_(ptr noundef nonnull align 8 dereferenceable(176) %4, i32 noundef 2918)
  br i1 %5, label %6, label %7

6:                                                ; preds = %1
  store i1 false, ptr %2, align 1
  br label %33

7:                                                ; preds = %1
  %8 = load ptr, ptr %3, align 8
  %9 = call noundef zeroext i1 @_ZNK4llvm3opt7ArgList6hasArgIJN5clang6driver7options2IDEEEEbDpT_(ptr noundef nonnull align 8 dereferenceable(176) %8, i32 noundef 1581)
  br i1 %9, label %31, label %10

10:                                               ; preds = %7
  %11 = load ptr, ptr %3, align 8
  %12 = call noundef zeroext i1 @_ZNK4llvm3opt7ArgList6hasArgIJN5clang6driver7options2IDEEEEbDpT_(ptr noundef nonnull align 8 dereferenceable(176) %11, i32 noundef 1580)
  br i1 %12, label %31, label %13

13:                                               ; preds = %10
  %14 = load ptr, ptr %3, align 8
  %15 = call noundef zeroext i1 @_ZNK4llvm3opt7ArgList6hasArgIJN5clang6driver7options2IDEEEEbDpT_(ptr noundef nonnull align 8 dereferenceable(176) %14, i32 noundef 529)
  br i1 %15, label %31, label %16

16:                                               ; preds = %13
  %17 = load ptr, ptr %3, align 8
  %18 = call noundef zeroext i1 @_ZNK4llvm3opt7ArgList6hasArgIJN5clang6driver7options2IDEEEEbDpT_(ptr noundef nonnull align 8 dereferenceable(176) %17, i32 noundef 528)
  br i1 %18, label %31, label %19

19:                                               ; preds = %16
  %20 = load ptr, ptr %3, align 8
  %21 = call noundef zeroext i1 @_ZNK4llvm3opt7ArgList6hasArgIJN5clang6driver7options2IDEEEEbDpT_(ptr noundef nonnull align 8 dereferenceable(176) %20, i32 noundef 1583)
  br i1 %21, label %31, label %22

22:                                               ; preds = %19
  %23 = load ptr, ptr %3, align 8
  %24 = call noundef zeroext i1 @_ZNK4llvm3opt7ArgList6hasArgIJN5clang6driver7options2IDEEEEbDpT_(ptr noundef nonnull align 8 dereferenceable(176) %23, i32 noundef 1582)
  br i1 %24, label %31, label %25

25:                                               ; preds = %22
  %26 = load ptr, ptr %3, align 8
  %27 = call noundef zeroext i1 @_ZNK4llvm3opt7ArgList6hasArgIJN5clang6driver7options2IDEEEEbDpT_(ptr noundef nonnull align 8 dereferenceable(176) %26, i32 noundef 527)
  br i1 %27, label %31, label %28

28:                                               ; preds = %25
  %29 = load ptr, ptr %3, align 8
  %30 = call noundef zeroext i1 @_ZNK4llvm3opt7ArgList6hasArgIJN5clang6driver7options2IDEEEEbDpT_(ptr noundef nonnull align 8 dereferenceable(176) %29, i32 noundef 1526)
  br label %31

31:                                               ; preds = %28, %25, %22, %19, %16, %13, %10, %7
  %32 = phi i1 [ true, %25 ], [ true, %22 ], [ true, %19 ], [ true, %16 ], [ true, %13 ], [ true, %10 ], [ true, %7 ], [ %30, %28 ]
  store i1 %32, ptr %2, align 1
  br label %33

33:                                               ; preds = %31, %6
  %34 = load i1, ptr %2, align 1
  ret i1 %34
}