; Function Attrs: mustprogress nounwind uwtable
define dso_local noundef zeroext i1 @_ZN5clang6driver9ToolChain14needsProfileRTERKN4llvm3opt7ArgListE(ptr noundef nonnull align 8 dereferenceable(176) %0) local_unnamed_addr #0 align 2 {
  %2 = tail call noundef ptr @_ZNK4llvm3opt7ArgList10getLastArgIJN5clang6driver7options2IDEEEEPNS0_3ArgEDpT_(ptr noundef nonnull align 8 dereferenceable(176) %0, i32 noundef 2918)
  %.not = icmp eq ptr %2, null
  br i1 %.not, label %3, label %20

3:                                                ; preds = %1
  %4 = tail call noundef ptr @_ZNK4llvm3opt7ArgList10getLastArgIJN5clang6driver7options2IDEEEEPNS0_3ArgEDpT_(ptr noundef nonnull align 8 dereferenceable(176) %0, i32 noundef 1581)
  %.not10 = icmp eq ptr %4, null
  br i1 %.not10, label %5, label %20

5:                                                ; preds = %3
  %6 = tail call noundef ptr @_ZNK4llvm3opt7ArgList10getLastArgIJN5clang6driver7options2IDEEEEPNS0_3ArgEDpT_(ptr noundef nonnull align 8 dereferenceable(176) %0, i32 noundef 1580)
  %.not11 = icmp eq ptr %6, null
  br i1 %.not11, label %7, label %20

7:                                                ; preds = %5
  %8 = tail call noundef ptr @_ZNK4llvm3opt7ArgList10getLastArgIJN5clang6driver7options2IDEEEEPNS0_3ArgEDpT_(ptr noundef nonnull align 8 dereferenceable(176) %0, i32 noundef 529)
  %.not12 = icmp eq ptr %8, null
  br i1 %.not12, label %9, label %20

9:                                                ; preds = %7
  %10 = tail call noundef ptr @_ZNK4llvm3opt7ArgList10getLastArgIJN5clang6driver7options2IDEEEEPNS0_3ArgEDpT_(ptr noundef nonnull align 8 dereferenceable(176) %0, i32 noundef 528)
  %.not13 = icmp eq ptr %10, null
  br i1 %.not13, label %11, label %20

11:                                               ; preds = %9
  %12 = tail call noundef ptr @_ZNK4llvm3opt7ArgList10getLastArgIJN5clang6driver7options2IDEEEEPNS0_3ArgEDpT_(ptr noundef nonnull align 8 dereferenceable(176) %0, i32 noundef 1583)
  %.not14 = icmp eq ptr %12, null
  br i1 %.not14, label %13, label %20

13:                                               ; preds = %11
  %14 = tail call noundef ptr @_ZNK4llvm3opt7ArgList10getLastArgIJN5clang6driver7options2IDEEEEPNS0_3ArgEDpT_(ptr noundef nonnull align 8 dereferenceable(176) %0, i32 noundef 1582)
  %.not15 = icmp eq ptr %14, null
  br i1 %.not15, label %15, label %20

15:                                               ; preds = %13
  %16 = tail call noundef ptr @_ZNK4llvm3opt7ArgList10getLastArgIJN5clang6driver7options2IDEEEEPNS0_3ArgEDpT_(ptr noundef nonnull align 8 dereferenceable(176) %0, i32 noundef 527)
  %.not16 = icmp eq ptr %16, null
  br i1 %.not16, label %17, label %20

17:                                               ; preds = %15
  %18 = tail call noundef ptr @_ZNK4llvm3opt7ArgList10getLastArgIJN5clang6driver7options2IDEEEEPNS0_3ArgEDpT_(ptr noundef nonnull align 8 dereferenceable(176) %0, i32 noundef 1526)
  %19 = icmp ne ptr %18, null
  br label %20

20:                                               ; preds = %3, %5, %7, %9, %11, %13, %15, %17, %1
  %.0 = phi i1 [ false, %1 ], [ true, %15 ], [ true, %13 ], [ true, %11 ], [ true, %9 ], [ true, %7 ], [ true, %5 ], [ true, %3 ], [ %19, %17 ]
  ret i1 %.0
}